target datalayout = "e-m:e-p270:32:32-p271:32:32-p272:64:64-i64:64-i128:128-f80:128-n8:16:32:64-S128"
target triple = "x86_64-pc-linux-gnu"

%"struct.std::__1::__shared_mutex_base" = type <{ %"class.std::__1::mutex", %"class.std::__1::condition_variable", %"class.std::__1::condition_variable", i32, [4 x i8] }>
%"class.std::__1::mutex" = type { %union.pthread_mutex_t }
%union.pthread_mutex_t = type { %struct.__pthread_mutex_s }
%struct.__pthread_mutex_s = type { i32, i32, i32, i32, i32, i16, i16, %struct.__pthread_internal_list }
%struct.__pthread_internal_list = type { ptr, ptr }
%"class.std::__1::condition_variable" = type { %union.pthread_cond_t }
%union.pthread_cond_t = type { %struct.__pthread_cond_s }
%struct.__pthread_cond_s = type { %union.__atomic_wide_counter, %union.__atomic_wide_counter, [2 x i32], [2 x i32], i32, i32, [2 x i32] }
%union.__atomic_wide_counter = type { i64 }
%"class.std::__1::unique_lock" = type <{ ptr, i8, [7 x i8] }>

@.str = private unnamed_addr constant [32 x i8] c"unique_lock::unlock: not locked\00", align 1

; Function Attrs: mustprogress nounwind uwtable
define linkonce_odr hidden void @_ZNSt3__111unique_lockINS_5mutexEED2B8ne210000Ev(ptr noundef nonnull align 8 dereferenceable(9) %0) unnamed_addr #0 comdat align 2 {
  %2 = alloca ptr, align 8
  store ptr %0, ptr %2, align 8, !tbaa !27
  %3 = load ptr, ptr %2, align 8
  %4 = getelementptr inbounds nuw %"class.std::__1::unique_lock", ptr %3, i32 0, i32 1
  %5 = load i8, ptr %4, align 8, !tbaa !32, !range !33, !noundef !34
  %6 = trunc i8 %5 to i1
  br i1 %6, label %7, label %10

7:                                                ; preds = %1
  %8 = getelementptr inbounds nuw %"class.std::__1::unique_lock", ptr %3, i32 0, i32 0
  %9 = load ptr, ptr %8, align 8, !tbaa !29
  call void @_ZNSt3__15mutex6unlockEv(ptr noundef nonnull align 8 dereferenceable(40) %9) #7
  br label %10

10:                                               ; preds = %7, %1
  ret void
}

; Function Attrs: mustprogress uwtable
define linkonce_odr hidden void @_ZNSt3__111unique_lockINS_5mutexEE6unlockB8ne210000Ev(ptr noundef nonnull align 8 dereferenceable(9) %0) #1 comdat align 2 {
  %2 = alloca ptr, align 8
  store ptr %0, ptr %2, align 8, !tbaa !27
  %3 = load ptr, ptr %2, align 8
  %4 = getelementptr inbounds nuw %"class.std::__1::unique_lock", ptr %3, i32 0, i32 1
  %5 = load i8, ptr %4, align 8, !tbaa !32, !range !33, !noundef !34
  %6 = trunc i8 %5 to i1
  br i1 %6, label %8, label %7

7:                                                ; preds = %1
  call void @_ZNSt3__120__throw_system_errorEiPKc(i32 noundef 1, ptr noundef @.str) #8
  unreachable

8:                                                ; preds = %1
  %9 = getelementptr inbounds nuw %"class.std::__1::unique_lock", ptr %3, i32 0, i32 0
  %10 = load ptr, ptr %9, align 8, !tbaa !29
  call void @_ZNSt3__15mutex6unlockEv(ptr noundef nonnull align 8 dereferenceable(40) %10) #7
  %11 = getelementptr inbounds nuw %"class.std::__1::unique_lock", ptr %3, i32 0, i32 1
  store i8 0, ptr %11, align 8, !tbaa !32
  ret void
}

; Function Attrs: mustprogress uwtable
define linkonce_odr hidden void @_ZNSt3__111unique_lockINS_5mutexEEC2B8ne210000ERS1_(ptr noundef nonnull align 8 dereferenceable(9) %0, ptr noundef nonnull align 8 dereferenceable(40) %1) unnamed_addr #1 comdat align 2 {
  %3 = alloca ptr, align 8
  %4 = alloca ptr, align 8
  store ptr %0, ptr %3, align 8, !tbaa !27
  store ptr %1, ptr %4, align 8, !tbaa !15
  %5 = load ptr, ptr %3, align 8
  %6 = getelementptr inbounds nuw %"class.std::__1::unique_lock", ptr %5, i32 0, i32 0
  %7 = load ptr, ptr %4, align 8, !tbaa !15
  store ptr %7, ptr %6, align 8, !tbaa !29
  %8 = getelementptr inbounds nuw %"class.std::__1::unique_lock", ptr %5, i32 0, i32 1
  store i8 1, ptr %8, align 8, !tbaa !32
  %9 = getelementptr inbounds nuw %"class.std::__1::unique_lock", ptr %5, i32 0, i32 0
  %10 = load ptr, ptr %9, align 8, !tbaa !29
  call void @_ZNSt3__15mutex4lockEv(ptr noundef nonnull align 8 dereferenceable(40) %10)
  ret void
}

; Function Attrs: mustprogress uwtable
define dso_local void @_ZNSt3__119__shared_mutex_base13unlock_sharedEv(ptr noundef nonnull align 8 dereferenceable(140) %0) #1 align 2 personality ptr @__gxx_personality_v0 {
  %2 = alloca ptr, align 8
  %3 = alloca %"class.std::__1::unique_lock", align 8
  %4 = alloca i32, align 4
  %5 = alloca ptr, align 8
  %6 = alloca i32, align 4
  store ptr %0, ptr %2, align 8, !tbaa !5
  %7 = load ptr, ptr %2, align 8
  call void @llvm.lifetime.start.p0(i64 16, ptr %3) #7
  %8 = getelementptr inbounds nuw %"struct.std::__1::__shared_mutex_base", ptr %7, i32 0, i32 0
  call void @_ZNSt3__111unique_lockINS_5mutexEEC2B8ne210000ERS1_(ptr noundef nonnull align 8 dereferenceable(9) %3, ptr noundef nonnull align 8 dereferenceable(40) %8)
  call void @llvm.lifetime.start.p0(i64 4, ptr %4) #7
  %9 = getelementptr inbounds nuw %"struct.std::__1::__shared_mutex_base", ptr %7, i32 0, i32 3
  %10 = load i32, ptr %9, align 8, !tbaa !10
  %11 = and i32 %10, 2147483647
  %12 = sub i32 %11, 1
  store i32 %12, ptr %4, align 4, !tbaa !40
  %13 = getelementptr inbounds nuw %"struct.std::__1::__shared_mutex_base", ptr %7, i32 0, i32 3
  %14 = load i32, ptr %13, align 8, !tbaa !10
  %15 = and i32 %14, -2147483648
  store i32 %15, ptr %13, align 8, !tbaa !10
  %16 = load i32, ptr %4, align 4, !tbaa !40
  %17 = getelementptr inbounds nuw %"struct.std::__1::__shared_mutex_base", ptr %7, i32 0, i32 3
  %18 = load i32, ptr %17, align 8, !tbaa !10
  %19 = or i32 %18, %16
  store i32 %19, ptr %17, align 8, !tbaa !10
  %20 = getelementptr inbounds nuw %"struct.std::__1::__shared_mutex_base", ptr %7, i32 0, i32 3
  %21 = load i32, ptr %20, align 8, !tbaa !10
  %22 = and i32 %21, -2147483648
  %23 = icmp ne i32 %22, 0
  br i1 %23, label %24, label %35

24:                                               ; preds = %1
  %25 = load i32, ptr %4, align 4, !tbaa !40
  %26 = icmp eq i32 %25, 0
  br i1 %26, label %27, label %34

27:                                               ; preds = %24
  invoke void @_ZNSt3__111unique_lockINS_5mutexEE6unlockB8ne210000Ev(ptr noundef nonnull align 8 dereferenceable(9) %3)
          to label %28 unwind label %30

28:                                               ; preds = %27
  %29 = getelementptr inbounds nuw %"struct.std::__1::__shared_mutex_base", ptr %7, i32 0, i32 2
  call void @_ZNSt3__118condition_variable10notify_oneEv(ptr noundef nonnull align 8 dereferenceable(48) %29) #7
  br label %34

30:                                               ; preds = %38, %27
  %31 = landingpad { ptr, i32 }
          cleanup
  %32 = extractvalue { ptr, i32 } %31, 0
  store ptr %32, ptr %5, align 8
  %33 = extractvalue { ptr, i32 } %31, 1
  store i32 %33, ptr %6, align 4
  call void @llvm.lifetime.end.p0(i64 4, ptr %4) #7
  call void @_ZNSt3__111unique_lockINS_5mutexEED2B8ne210000Ev(ptr noundef nonnull align 8 dereferenceable(9) %3) #7
  call void @llvm.lifetime.end.p0(i64 16, ptr %3) #7
  br label %43

34:                                               ; preds = %28, %24
  br label %42

35:                                               ; preds = %1
  %36 = load i32, ptr %4, align 4, !tbaa !40
  %37 = icmp eq i32 %36, 2147483646
  br i1 %37, label %38, label %41

38:                                               ; preds = %35
  invoke void @_ZNSt3__111unique_lockINS_5mutexEE6unlockB8ne210000Ev(ptr noundef nonnull align 8 dereferenceable(9) %3)
          to label %39 unwind label %30

39:                                               ; preds = %38
  %40 = getelementptr inbounds nuw %"struct.std::__1::__shared_mutex_base", ptr %7, i32 0, i32 1
  call void @_ZNSt3__118condition_variable10notify_oneEv(ptr noundef nonnull align 8 dereferenceable(48) %40) #7
  br label %41

41:                                               ; preds = %39, %35
  br label %42

42:                                               ; preds = %41, %34
  call void @llvm.lifetime.end.p0(i64 4, ptr %4) #7
  call void @_ZNSt3__111unique_lockINS_5mutexEED2B8ne210000Ev(ptr noundef nonnull align 8 dereferenceable(9) %3) #7
  call void @llvm.lifetime.end.p0(i64 16, ptr %3) #7
  ret void

43:                                               ; preds = %30
  %44 = load ptr, ptr %5, align 8
  %45 = load i32, ptr %6, align 4
  %46 = insertvalue { ptr, i32 } poison, ptr %44, 0
  %47 = insertvalue { ptr, i32 } %46, i32 %45, 1
  resume { ptr, i32 } %47
}