; Function Attrs: mustprogress uwtable
define dso_local void @_ZNSt3__119__shared_mutex_base13unlock_sharedEv(ptr noundef nonnull align 8 dereferenceable(140) %0) local_unnamed_addr #1 align 2 personality ptr @__gxx_personality_v0 {
  tail call void @_ZNSt3__15mutex4lockEv(ptr noundef nonnull align 8 dereferenceable(40) %0)
  %2 = getelementptr inbounds nuw i8, ptr %0, i64 136
  %3 = load i32, ptr %2, align 8, !tbaa !13
  %4 = and i32 %3, 2147483647
  %5 = add nsw i32 %4, -1
  %6 = and i32 %3, -2147483648
  %7 = or i32 %5, %6
  store i32 %7, ptr %2, align 8, !tbaa !13
  %.not = icmp sgt i32 %7, -1
  br i1 %.not, label %12, label %8

8:                                                ; preds = %1
  %9 = icmp eq i32 %5, 0
  br i1 %9, label %10, label %16

10:                                               ; preds = %8
  tail call void @_ZNSt3__15mutex6unlockEv(ptr noundef nonnull align 8 dereferenceable(40) %0) #6
  %11 = getelementptr inbounds nuw i8, ptr %0, i64 88
  tail call void @_ZNSt3__118condition_variable10notify_oneEv(ptr noundef nonnull align 8 dereferenceable(48) %11) #6
  br label %_ZNSt3__111unique_lockINS_5mutexEED2B8ne210000Ev.exit7

12:                                               ; preds = %1
  %13 = icmp eq i32 %5, 2147483646
  br i1 %13, label %14, label %16

14:                                               ; preds = %12
  tail call void @_ZNSt3__15mutex6unlockEv(ptr noundef nonnull align 8 dereferenceable(40) %0) #6
  %15 = getelementptr inbounds nuw i8, ptr %0, i64 40
  tail call void @_ZNSt3__118condition_variable10notify_oneEv(ptr noundef nonnull align 8 dereferenceable(48) %15) #6
  br label %_ZNSt3__111unique_lockINS_5mutexEED2B8ne210000Ev.exit7

16:                                               ; preds = %12, %8
  tail call void @_ZNSt3__15mutex6unlockEv(ptr noundef nonnull align 8 dereferenceable(40) %0) #6
  br label %_ZNSt3__111unique_lockINS_5mutexEED2B8ne210000Ev.exit7

_ZNSt3__111unique_lockINS_5mutexEED2B8ne210000Ev.exit7: ; preds = %10, %14, %16
  ret void
}